target datalayout = "e-m:e-p270:32:32-p271:32:32-p272:64:64-i64:64-i128:128-f80:128-n8:16:32:64-S128"
target triple = "x86_64-pc-linux-gnu"

%struct.multi_pack_index = type { ptr, ptr, i64, ptr, ptr, i64, i32, i8, i8, i8, i32, i32, i32, i32, i32, ptr, i64, ptr, i64, ptr, ptr, ptr, ptr, i64, ptr, i64, ptr, i32, i32, ptr, ptr, ptr, [0 x i8] }
%struct.repository = type { ptr, ptr, ptr, ptr, ptr, %struct.strmap, %struct.strmap, %struct.repo_path_cache, ptr, ptr, ptr, ptr, %struct.repo_settings, ptr, ptr, ptr, ptr, ptr, ptr, i32, i32, i32, ptr, ptr, i32, i32, i8 }
%struct.strmap = type { %struct.hashmap, ptr, i8 }
%struct.hashmap = type { ptr, ptr, ptr, i32, i32, i32, i32, i8 }
%struct.repo_path_cache = type { ptr, ptr, ptr, ptr, ptr, ptr, ptr }
%struct.repo_settings = type { i32, i32, i32, i32, i32, i32, i32, i32, i32, i32, i32, i32, ptr, i32, i32, i32, i32, i32, i32, i32, i64, i64, i64 }
%struct.list_head = type { ptr, ptr }
%struct.raw_object_store = type { ptr, ptr, ptr, i32, ptr, ptr, i8, %union.pthread_mutex_t, ptr, i8, ptr, ptr, %struct.list_head, %struct.anon, %struct.hashmap, i64, i8 }
%union.pthread_mutex_t = type { %struct.__pthread_mutex_s }
%struct.__pthread_mutex_s = type { i32, i32, i32, i32, i32, i16, i16, %struct.__pthread_internal_list }
%struct.__pthread_internal_list = type { ptr, ptr }
%struct.anon = type { ptr, i32 }

; Function Attrs: nounwind uwtable
define dso_local i32 @prepare_multi_pack_index_one(ptr noundef %0, ptr noundef %1, i32 noundef %2) #0 {
  %4 = alloca i32, align 4
  %5 = alloca ptr, align 8
  %6 = alloca ptr, align 8
  %7 = alloca i32, align 4
  %8 = alloca ptr, align 8
  %9 = alloca ptr, align 8
  %10 = alloca i32, align 4
  %11 = alloca ptr, align 8
  store ptr %0, ptr %5, align 8, !tbaa !13
  store ptr %1, ptr %6, align 8, !tbaa !9
  store i32 %2, ptr %7, align 4, !tbaa !40
  call void @llvm.lifetime.start.p0(i64 8, ptr %8) #13
  call void @llvm.lifetime.start.p0(i64 8, ptr %9) #13
  %12 = load ptr, ptr %5, align 8, !tbaa !13
  call void @prepare_repo_settings(ptr noundef %12)
  %13 = load ptr, ptr %5, align 8, !tbaa !13
  %14 = getelementptr inbounds nuw %struct.repository, ptr %13, i32 0, i32 12
  %15 = getelementptr inbounds nuw %struct.repo_settings, ptr %14, i32 0, i32 18
  %16 = load i32, ptr %15, align 4, !tbaa !99
  %17 = icmp ne i32 %16, 0
  br i1 %17, label %19, label %18

18:                                               ; preds = %3
  store i32 0, ptr %4, align 4
  store i32 1, ptr %10, align 4
  br label %73

19:                                               ; preds = %3
  %20 = load ptr, ptr %5, align 8, !tbaa !13
  %21 = getelementptr inbounds nuw %struct.repository, ptr %20, i32 0, i32 2
  %22 = load ptr, ptr %21, align 8, !tbaa !59
  %23 = getelementptr inbounds nuw %struct.raw_object_store, ptr %22, i32 0, i32 10
  %24 = load ptr, ptr %23, align 8, !tbaa !100
  store ptr %24, ptr %9, align 8, !tbaa !4
  br label %25

25:                                               ; preds = %37, %19
  %26 = load ptr, ptr %9, align 8, !tbaa !4
  %27 = icmp ne ptr %26, null
  br i1 %27, label %28, label %41

28:                                               ; preds = %25
  %29 = load ptr, ptr %6, align 8, !tbaa !9
  %30 = load ptr, ptr %9, align 8, !tbaa !4
  %31 = getelementptr inbounds nuw %struct.multi_pack_index, ptr %30, i32 0, i32 32
  %32 = getelementptr inbounds [0 x i8], ptr %31, i64 0, i64 0
  %33 = call i32 @strcmp(ptr noundef %29, ptr noundef %32) #12
  %34 = icmp ne i32 %33, 0
  br i1 %34, label %36, label %35

35:                                               ; preds = %28
  store i32 1, ptr %4, align 4
  store i32 1, ptr %10, align 4
  br label %73

36:                                               ; preds = %28
  br label %37

37:                                               ; preds = %36
  %38 = load ptr, ptr %9, align 8, !tbaa !4
  %39 = getelementptr inbounds nuw %struct.multi_pack_index, ptr %38, i32 0, i32 0
  %40 = load ptr, ptr %39, align 8, !tbaa !4
  store ptr %40, ptr %9, align 8, !tbaa !4
  br label %25, !llvm.loop !108

41:                                               ; preds = %25
  %42 = load ptr, ptr %5, align 8, !tbaa !13
  %43 = load ptr, ptr %6, align 8, !tbaa !9
  %44 = load i32, ptr %7, align 4, !tbaa !40
  %45 = call ptr @load_multi_pack_index(ptr noundef %42, ptr noundef %43, i32 noundef %44)
  store ptr %45, ptr %8, align 8, !tbaa !4
  %46 = load ptr, ptr %8, align 8, !tbaa !4
  %47 = icmp ne ptr %46, null
  br i1 %47, label %48, label %72

48:                                               ; preds = %41
  call void @llvm.lifetime.start.p0(i64 8, ptr %11) #13
  %49 = load ptr, ptr %5, align 8, !tbaa !13
  %50 = getelementptr inbounds nuw %struct.repository, ptr %49, i32 0, i32 2
  %51 = load ptr, ptr %50, align 8, !tbaa !59
  %52 = getelementptr inbounds nuw %struct.raw_object_store, ptr %51, i32 0, i32 10
  %53 = load ptr, ptr %52, align 8, !tbaa !100
  store ptr %53, ptr %11, align 8, !tbaa !4
  %54 = load ptr, ptr %11, align 8, !tbaa !4
  %55 = icmp ne ptr %54, null
  br i1 %55, label %56, label %65

56:                                               ; preds = %48
  %57 = load ptr, ptr %11, align 8, !tbaa !4
  %58 = getelementptr inbounds nuw %struct.multi_pack_index, ptr %57, i32 0, i32 0
  %59 = load ptr, ptr %58, align 8, !tbaa !4
  %60 = load ptr, ptr %8, align 8, !tbaa !4
  %61 = getelementptr inbounds nuw %struct.multi_pack_index, ptr %60, i32 0, i32 0
  store ptr %59, ptr %61, align 8, !tbaa !4
  %62 = load ptr, ptr %8, align 8, !tbaa !4
  %63 = load ptr, ptr %11, align 8, !tbaa !4
  %64 = getelementptr inbounds nuw %struct.multi_pack_index, ptr %63, i32 0, i32 0
  store ptr %62, ptr %64, align 8, !tbaa !4
  br label %71

65:                                               ; preds = %48
  %66 = load ptr, ptr %8, align 8, !tbaa !4
  %67 = load ptr, ptr %5, align 8, !tbaa !13
  %68 = getelementptr inbounds nuw %struct.repository, ptr %67, i32 0, i32 2
  %69 = load ptr, ptr %68, align 8, !tbaa !59
  %70 = getelementptr inbounds nuw %struct.raw_object_store, ptr %69, i32 0, i32 10
  store ptr %66, ptr %70, align 8, !tbaa !100
  br label %71

71:                                               ; preds = %65, %56
  store i32 1, ptr %4, align 4
  store i32 1, ptr %10, align 4
  call void @llvm.lifetime.end.p0(i64 8, ptr %11) #13
  br label %73

72:                                               ; preds = %41
  store i32 0, ptr %4, align 4
  store i32 1, ptr %10, align 4
  br label %73

73:                                               ; preds = %72, %71, %35, %18
  call void @llvm.lifetime.end.p0(i64 8, ptr %9) #13
  call void @llvm.lifetime.end.p0(i64 8, ptr %8) #13
  %74 = load i32, ptr %4, align 4
  ret i32 %74
}