; Function Attrs: nounwind uwtable
define dso_local range(i32 0, 2) i32 @prepare_multi_pack_index_one(ptr noundef %0, ptr noundef %1, i32 noundef %2) local_unnamed_addr #1 {
  tail call void @prepare_repo_settings(ptr noundef %0) #22
  %4 = getelementptr inbounds nuw i8, ptr %0, i64 332
  %5 = load i32, ptr %4, align 4, !tbaa !88
  %.not = icmp eq i32 %5, 0
  br i1 %.not, label %.loopexit, label %6

6:                                                ; preds = %3
  %7 = getelementptr inbounds nuw i8, ptr %0, i64 16
  %8 = load ptr, ptr %7, align 8, !tbaa !58
  %9 = getelementptr inbounds nuw i8, ptr %8, i64 112
  br label %10

10:                                               ; preds = %11, %6
  %.019.in = phi ptr [ %9, %6 ], [ %.019, %11 ]
  %.019 = load ptr, ptr %.019.in, align 8, !tbaa !44
  %.not22 = icmp eq ptr %.019, null
  br i1 %.not22, label %14, label %11

11:                                               ; preds = %10
  %12 = getelementptr inbounds nuw i8, ptr %.019, i64 208
  %13 = tail call i32 @strcmp(ptr noundef nonnull dereferenceable(1) %1, ptr noundef nonnull dereferenceable(1) %12) #25
  %.not25 = icmp eq i32 %13, 0
  br i1 %.not25, label %.loopexit, label %10, !llvm.loop !89

14:                                               ; preds = %10
  %15 = tail call ptr @load_multi_pack_index(ptr noundef %0, ptr noundef %1, i32 noundef %2)
  %.not23 = icmp eq ptr %15, null
  br i1 %.not23, label %.loopexit, label %16

16:                                               ; preds = %14
  %17 = load ptr, ptr %7, align 8, !tbaa !58
  %18 = getelementptr inbounds nuw i8, ptr %17, i64 112
  %19 = load ptr, ptr %18, align 8, !tbaa !90
  %.not24 = icmp eq ptr %19, null
  br i1 %.not24, label %22, label %20

20:                                               ; preds = %16
  %21 = load ptr, ptr %19, align 8, !tbaa !44
  store ptr %21, ptr %15, align 8, !tbaa !44
  store ptr %15, ptr %19, align 8, !tbaa !44
  br label %.loopexit

22:                                               ; preds = %16
  store ptr %15, ptr %18, align 8, !tbaa !90
  br label %.loopexit

.loopexit:                                        ; preds = %11, %14, %20, %22, %3
  %.0 = phi i32 [ 0, %3 ], [ 1, %22 ], [ 1, %20 ], [ 0, %14 ], [ 1, %11 ]
  ret i32 %.0
}